; Function Attrs: mustprogress uwtable
define noundef i32 @_ZNK7testing8UnitTest22failed_test_case_countEv(ptr noundef nonnull readonly align 8 captures(none) dereferenceable(72) %0) local_unnamed_addr #4 align 2 {
  %2 = getelementptr inbounds nuw i8, ptr %0, i64 64
  %3 = load ptr, ptr %2, align 8, !tbaa !42
  %4 = getelementptr inbounds nuw i8, ptr %3, i64 184
  %5 = load ptr, ptr %4, align 8, !tbaa !224
  %6 = getelementptr inbounds nuw i8, ptr %3, i64 192
  %7 = load ptr, ptr %6, align 8, !tbaa !224
  %.not7.i.i = icmp eq ptr %5, %7
  br i1 %.not7.i.i, label %_ZNK7testing8internal12UnitTestImpl22failed_test_case_countEv.exit, label %.lr.ph.i.i

.lr.ph.i.i:                                       ; preds = %1, %_ZN7testing8internalL14TestCaseFailedEPKNS_8TestCaseE.exit.i
  %.09.i.i = phi i32 [ %spec.select.i.i, %_ZN7testing8internalL14TestCaseFailedEPKNS_8TestCaseE.exit.i ], [ 0, %1 ]
  %.sroa.04.08.i.i = phi ptr [ %40, %_ZN7testing8internalL14TestCaseFailedEPKNS_8TestCaseE.exit.i ], [ %5, %1 ]
  %8 = load ptr, ptr %.sroa.04.08.i.i, align 8, !tbaa !225
  %9 = getelementptr inbounds nuw i8, ptr %8, i64 112
  %10 = load i8, ptr %9, align 8, !tbaa !226, !range !68, !noundef !69
  %11 = trunc nuw i8 %10 to i1
  br i1 %11, label %12, label %_ZN7testing8internalL14TestCaseFailedEPKNS_8TestCaseE.exit.i

12:                                               ; preds = %.lr.ph.i.i
  %13 = getelementptr inbounds nuw i8, ptr %8, i64 48
  %14 = load ptr, ptr %13, align 8, !tbaa !234
  %15 = getelementptr inbounds nuw i8, ptr %8, i64 56
  %16 = load ptr, ptr %15, align 8, !tbaa !234
  %.not7.i.i.i.i.i = icmp eq ptr %14, %16
  br i1 %.not7.i.i.i.i.i, label %_ZN7testing8internalL14TestCaseFailedEPKNS_8TestCaseE.exit.i, label %.lr.ph.i.i.i.i.i

.lr.ph.i.i.i.i.i:                                 ; preds = %12, %_ZN7testing8TestCase10TestFailedEPKNS_8TestInfoE.exit.i.i.i.i
  %.09.i.i.i.i.i = phi i32 [ %spec.select.i.i.i.i.i, %_ZN7testing8TestCase10TestFailedEPKNS_8TestInfoE.exit.i.i.i.i ], [ 0, %12 ]
  %.sroa.04.08.i.i.i.i.i = phi ptr [ %36, %_ZN7testing8TestCase10TestFailedEPKNS_8TestInfoE.exit.i.i.i.i ], [ %14, %12 ]
  %17 = load ptr, ptr %.sroa.04.08.i.i.i.i.i, align 8, !tbaa !235
  %18 = getelementptr inbounds nuw i8, ptr %17, i64 128
  %19 = load i8, ptr %18, align 8, !tbaa !236, !range !68, !noundef !69
  %20 = trunc nuw i8 %19 to i1
  br i1 %20, label %21, label %_ZN7testing8TestCase10TestFailedEPKNS_8TestInfoE.exit.i.i.i.i

21:                                               ; preds = %.lr.ph.i.i.i.i.i
  %22 = getelementptr inbounds nuw i8, ptr %17, i64 200
  %23 = getelementptr inbounds nuw i8, ptr %17, i64 208
  %24 = load ptr, ptr %23, align 8, !tbaa !191
  %25 = load ptr, ptr %22, align 8, !tbaa !199
  %26 = ptrtoint ptr %24 to i64
  %27 = ptrtoint ptr %25 to i64
  %28 = sub i64 %26, %27
  %29 = sdiv exact i64 %28, 112
  %30 = trunc i64 %29 to i32
  %.not711.i.i.i.i.i.i = icmp sgt i32 %30, 0
  br i1 %.not711.i.i.i.i.i.i, label %.lr.ph.preheader.i.i.i.i.i.i, label %_ZN7testing8TestCase10TestFailedEPKNS_8TestInfoE.exit.i.i.i.i

.lr.ph.preheader.i.i.i.i.i.i:                     ; preds = %21
  %wide.trip.count.i.i.i.i.i.i = and i64 %29, 2147483647
  br label %.lr.ph.i.i.i.i.i.i

31:                                               ; preds = %_ZNK7testing10TestResult17GetTestPartResultEi.exit.i.i.i.i.i.i
  %indvars.iv.next.i.i.i.i.i.i = add nuw nsw i64 %indvars.iv.i.i.i.i.i.i, 1
  %exitcond17.not.i.i.i.i.i.i = icmp eq i64 %indvars.iv.next.i.i.i.i.i.i, %wide.trip.count.i.i.i.i.i.i
  br i1 %exitcond17.not.i.i.i.i.i.i, label %_ZN7testing8TestCase10TestFailedEPKNS_8TestInfoE.exit.i.i.i.i, label %.lr.ph.i.i.i.i.i.i, !llvm.loop !240

.lr.ph.i.i.i.i.i.i:                               ; preds = %31, %.lr.ph.preheader.i.i.i.i.i.i
  %indvars.iv.i.i.i.i.i.i = phi i64 [ 0, %.lr.ph.preheader.i.i.i.i.i.i ], [ %indvars.iv.next.i.i.i.i.i.i, %31 ]
  %exitcond.not.i.i.i.i.i.i = icmp eq i64 %indvars.iv.i.i.i.i.i.i, %29
  br i1 %exitcond.not.i.i.i.i.i.i, label %32, label %_ZNK7testing10TestResult17GetTestPartResultEi.exit.i.i.i.i.i.i

32:                                               ; preds = %.lr.ph.i.i.i.i.i.i
  tail call void (ptr, ...) @_ZSt24__throw_out_of_range_fmtPKcz(ptr noundef nonnull @.str.490, i64 noundef %29, i64 noundef %29) #58
  unreachable

_ZNK7testing10TestResult17GetTestPartResultEi.exit.i.i.i.i.i.i: ; preds = %.lr.ph.i.i.i.i.i.i
  %33 = getelementptr inbounds nuw %"class.testing::TestPartResult", ptr %25, i64 %indvars.iv.i.i.i.i.i.i
  %34 = load i32, ptr %33, align 8, !tbaa !208
  %.not.not.i.not.i.i.i.i.i = icmp eq i32 %34, 0
  br i1 %.not.not.i.not.i.i.i.i.i, label %31, label %_ZN7testing8TestCase10TestFailedEPKNS_8TestInfoE.exit.i.i.i.i

_ZN7testing8TestCase10TestFailedEPKNS_8TestInfoE.exit.i.i.i.i: ; preds = %_ZNK7testing10TestResult17GetTestPartResultEi.exit.i.i.i.i.i.i, %31, %21, %.lr.ph.i.i.i.i.i
  %35 = phi i32 [ 0, %.lr.ph.i.i.i.i.i ], [ 0, %21 ], [ 0, %31 ], [ 1, %_ZNK7testing10TestResult17GetTestPartResultEi.exit.i.i.i.i.i.i ]
  %spec.select.i.i.i.i.i = add nuw nsw i32 %35, %.09.i.i.i.i.i
  %36 = getelementptr inbounds nuw i8, ptr %.sroa.04.08.i.i.i.i.i, i64 8
  %.not.i.i.i.i.i = icmp eq ptr %36, %16
  br i1 %.not.i.i.i.i.i, label %_ZNK7testing8TestCase17failed_test_countEv.exit.loopexit.i.i.i, label %.lr.ph.i.i.i.i.i, !llvm.loop !241

_ZNK7testing8TestCase17failed_test_countEv.exit.loopexit.i.i.i: ; preds = %_ZN7testing8TestCase10TestFailedEPKNS_8TestInfoE.exit.i.i.i.i
  %37 = icmp ne i32 %spec.select.i.i.i.i.i, 0
  %38 = zext i1 %37 to i32
  br label %_ZN7testing8internalL14TestCaseFailedEPKNS_8TestCaseE.exit.i

_ZN7testing8internalL14TestCaseFailedEPKNS_8TestCaseE.exit.i: ; preds = %_ZNK7testing8TestCase17failed_test_countEv.exit.loopexit.i.i.i, %12, %.lr.ph.i.i
  %39 = phi i32 [ 0, %.lr.ph.i.i ], [ 0, %12 ], [ %38, %_ZNK7testing8TestCase17failed_test_countEv.exit.loopexit.i.i.i ]
  %spec.select.i.i = add nuw nsw i32 %39, %.09.i.i
  %40 = getelementptr inbounds nuw i8, ptr %.sroa.04.08.i.i, i64 8
  %.not.i.i = icmp eq ptr %40, %7
  br i1 %.not.i.i, label %_ZNK7testing8internal12UnitTestImpl22failed_test_case_countEv.exit, label %.lr.ph.i.i, !llvm.loop !242

_ZNK7testing8internal12UnitTestImpl22failed_test_case_countEv.exit: ; preds = %_ZN7testing8internalL14TestCaseFailedEPKNS_8TestCaseE.exit.i, %1
  %.0.lcssa.i.i = phi i32 [ 0, %1 ], [ %spec.select.i.i, %_ZN7testing8internalL14TestCaseFailedEPKNS_8TestCaseE.exit.i ]
  ret i32 %.0.lcssa.i.i
}